Certificate:
    Data:
        Version: 3 (0x2)
        Serial Number:
            47:77:26:6d:ae:6c:57:73:eb:80:e2:96:dd:26:93:ff:e9:f5:62:5d
        Signature Algorithm: sha512WithRSAEncryption
        Issuer: CN=Canonical Ltd. Live Patch Signing 2025 Kmod
        Validity
            Not Before: May 16 09:07:40 2025 GMT
            Not After : May 16 09:07:40 2050 GMT
        Subject: CN=Canonical Ltd. Live Patch Signing 2025 Kmod
        Subject Public Key Info:
            Public Key Algorithm: rsaEncryption
                Public-Key: (4096 bit)
                Modulus:
                    00:b8:a9:03:47:2e:7b:c6:86:16:f4:b7:a8:4d:3b:
                    05:f6:c4:75:35:e9:22:8a:4e:40:06:89:15:7f:ad:
                    99:bb:e6:90:93:61:c8:16:cf:2e:00:1b:81:36:fd:
                    cc:31:7b:97:79:8d:5e:d2:4d:d3:2f:ab:35:2d:74:
                    48:98:b3:d9:75:f9:bb:e1:f2:3f:6b:6d:dc:e4:bb:
                    ee:f5:aa:f7:8a:8c:7a:a8:0b:df:b1:f8:d6:04:13:
                    27:e9:1a:aa:c2:4d:d2:35:3a:bc:06:d7:83:7f:e8:
                    c4:1c:63:8b:3a:ff:0e:0b:89:6e:4f:5f:ea:ad:78:
                    df:37:ab:f9:55:1d:fb:6e:29:a4:22:43:d1:9b:12:
                    1e:b2:84:23:1b:d2:38:91:b8:a8:6c:1c:59:3c:ff:
                    4c:a9:18:ce:d0:7f:1d:ef:04:cf:8a:e8:29:b2:4b:
                    68:0d:92:32:bc:9c:5d:8f:0a:d1:dd:4d:25:ba:3a:
                    8c:6a:48:5b:1e:9c:01:10:99:c1:a7:34:ee:68:ec:
                    a1:d3:26:be:45:c8:b4:97:ac:8a:aa:7e:13:a6:e5:
                    43:f1:1b:3f:a1:80:0a:d2:a9:e7:f2:77:ca:e1:f5:
                    29:36:df:75:8a:7e:02:d6:17:aa:46:12:b9:51:f0:
                    6b:ca:22:f8:05:de:d6:02:47:76:0c:88:f1:c6:90:
                    44:99:58:71:c7:62:1e:2b:94:c5:2b:8e:dc:ca:7b:
                    a7:bd:cd:38:8f:4e:73:6d:b0:9b:4e:7c:12:1f:5c:
                    c5:62:d6:82:c6:d2:78:09:52:dc:d7:78:2e:23:d0:
                    63:1f:7d:77:91:c8:3f:66:7a:20:8a:cf:70:09:0f:
                    a2:c0:82:a5:42:d9:be:dc:5f:78:73:f7:fa:3c:70:
                    47:7b:39:77:89:5a:6f:ef:83:09:c9:1b:21:53:89:
                    7c:10:bf:99:9c:05:39:32:1e:84:3b:a5:84:7e:ef:
                    08:6d:b0:b0:31:61:d6:1a:aa:dd:7a:d6:10:02:e6:
                    72:02:e5:40:bf:07:b9:cd:61:d1:55:04:9a:cd:02:
                    73:41:c1:df:20:30:12:97:ca:a1:83:1a:97:8a:92:
                    1c:47:5c:0a:60:da:41:3b:e6:0e:2c:82:ce:45:65:
                    81:ba:45:a1:66:cc:ef:ab:65:5c:e5:a8:0c:86:dd:
                    fc:86:54:f3:37:7c:89:a9:0c:fa:3a:da:82:c9:90:
                    99:1e:1d:66:44:de:d3:c5:d4:0b:da:15:f8:d8:d4:
                    63:2b:4e:6f:24:e9:c2:d7:74:9c:29:91:9f:25:39:
                    8d:77:15:8c:cb:8e:ad:e3:80:0a:ea:79:04:72:9d:
                    51:01:18:ae:35:51:ef:95:79:38:c4:db:99:50:47:
                    62:38:e9
                Exponent: 65537 (0x10001)
        X509v3 extensions:
            X509v3 Basic Constraints: critical
                CA:FALSE
            X509v3 Key Usage: 
                Digital Signature
            X509v3 Subject Key Identifier: 
                D5:41:CE:F6:1D:C7:E7:93:B7:EB:7E:89:99:70:A2:EE:F0:B5:DC:8C
            X509v3 Authority Key Identifier: 
                D5:41:CE:F6:1D:C7:E7:93:B7:EB:7E:89:99:70:A2:EE:F0:B5:DC:8C
            X509v3 Extended Key Usage: 
                Code Signing, 1.3.6.1.4.1.2312.16.1.2
    Signature Algorithm: sha512WithRSAEncryption
    Signature Value:
        40:9d:5b:70:66:fe:9c:99:eb:ed:78:61:be:da:67:da:ac:80:
        a8:c2:78:91:f8:90:11:be:9f:6a:e7:bf:79:dc:11:0c:c7:83:
        e8:13:c4:1c:b6:fe:f0:e7:7d:1a:12:97:5d:19:56:9c:10:12:
        1e:b9:19:88:30:95:c4:3b:2f:aa:91:6f:c1:9e:68:4a:f4:5c:
        ef:a1:51:b5:a3:9b:58:3f:e2:ae:5c:29:a6:c4:30:fd:65:0b:
        cc:8c:99:95:33:61:c6:07:fa:c3:bd:1a:57:80:e5:43:97:2e:
        f3:5c:d6:1e:b7:23:9f:58:10:19:24:46:9e:f8:fd:2c:8e:88:
        e7:ec:ef:15:4b:7a:6a:ce:b0:25:c0:01:c5:21:83:1a:d5:89:
        0c:90:86:ad:d4:3e:6e:28:bf:6c:21:91:ff:b9:a9:ef:d4:ac:
        de:7c:67:c1:e4:ed:75:26:15:ff:5d:67:39:24:2d:15:57:21:
        09:76:e5:85:f3:45:e8:bf:b1:c0:39:2b:83:34:1a:f5:3f:1f:
        ae:07:8c:82:1f:d4:dc:95:c0:4e:f3:7f:ac:db:8f:2c:db:a4:
        d4:2a:4c:8c:de:e6:5b:84:fc:df:a3:74:d8:dc:9c:93:1f:5b:
        c9:33:b5:b3:7d:2b:a4:4d:7a:bb:73:92:ff:8d:e9:9e:c7:a7:
        d2:0d:83:bb:2c:2f:47:51:15:5c:6d:db:9a:d3:9e:6e:25:90:
        01:e6:09:bd:a2:d0:1e:cf:a3:12:22:0d:56:70:bf:89:e4:be:
        62:76:9c:d9:f5:c8:01:55:95:02:57:a1:67:59:88:97:57:f6:
        bb:8d:c9:40:d5:e3:60:4f:43:dd:49:90:fa:a5:6d:08:96:b2:
        4d:dd:a7:c6:e3:5c:06:ba:af:8c:30:9d:d5:a5:b0:ab:c4:e5:
        f3:09:47:05:ba:9b:46:f4:26:70:3b:fa:da:a5:0a:47:ce:be:
        43:87:eb:73:63:3b:cd:41:7a:78:a0:f6:7d:c5:37:fb:bb:26:
        3b:b3:e7:44:49:06:8c:14:03:fc:b3:46:54:3b:0d:57:02:08:
        99:79:68:a2:9c:62:95:4d:ac:8e:19:43:4e:8f:2d:52:fa:91:
        ca:78:06:a2:b7:a3:66:6d:67:0b:13:ee:b1:01:38:e0:7c:ac:
        9a:16:27:36:f1:45:83:5d:eb:d6:cd:65:3f:56:9a:d3:56:c4:
        15:55:b2:64:ca:13:cb:31:1e:7e:03:85:68:61:40:02:99:4b:
        25:01:68:8d:97:cc:39:1a:54:1b:e5:51:38:8e:ce:66:74:61:
        5e:87:f4:31:7d:0d:be:9d:01:e1:b3:5c:bc:1a:d0:ea:5e:b2:
        c8:ee:97:34:bc:9f:bb:98
-----BEGIN CERTIFICATE-----
MIIFejCCA2KgAwIBAgIUR3cmba5sV3PrgOKW3SaT/+n1Yl0wDQYJKoZIhvcNAQEN
BQAwNjE0MDIGA1UEAwwrQ2Fub25pY2FsIEx0ZC4gTGl2ZSBQYXRjaCBTaWduaW5n
IDIwMjUgS21vZDAgFw0yNTA1MTYwOTA3NDBaGA8yMDUwMDUxNjA5MDc0MFowNjE0
MDIGA1UEAwwrQ2Fub25pY2FsIEx0ZC4gTGl2ZSBQYXRjaCBTaWduaW5nIDIwMjUg
S21vZDCCAiIwDQYJKoZIhvcNAQEBBQADggIPADCCAgoCggIBALipA0cue8aGFvS3
qE07BfbEdTXpIopOQAaJFX+tmbvmkJNhyBbPLgAbgTb9zDF7l3mNXtJN0y+rNS10
SJiz2XX5u+HyP2tt3OS77vWq94qMeqgL37H41gQTJ+kaqsJN0jU6vAbXg3/oxBxj
izr/DguJbk9f6q143zer+VUd+24ppCJD0ZsSHrKEIxvSOJG4qGwcWTz/TKkYztB/
He8Ez4roKbJLaA2SMrycXY8K0d1NJbo6jGpIWx6cARCZwac07mjsodMmvkXItJes
iqp+E6blQ/EbP6GACtKp5/J3yuH1KTbfdYp+AtYXqkYSuVHwa8oi+AXe1gJHdgyI
8caQRJlYccdiHiuUxSuO3Mp7p73NOI9Oc22wm058Eh9cxWLWgsbSeAlS3Nd4LiPQ
Yx99d5HIP2Z6IIrPcAkPosCCpULZvtxfeHP3+jxwR3s5d4lab++DCckbIVOJfBC/
mZwFOTIehDulhH7vCG2wsDFh1hqq3XrWEALmcgLlQL8Huc1h0VUEms0Cc0HB3yAw
EpfKoYMal4qSHEdcCmDaQTvmDiyCzkVlgbpFoWbM76tlXOWoDIbd/IZU8zd8iakM
+jragsmQmR4dZkTe08XUC9oV+NjUYytObyTpwtd0nCmRnyU5jXcVjMuOreOACup5
BHKdUQEYrjVR75V5OMTbmVBHYjjpAgMBAAGjfjB8MAwGA1UdEwEB/wQCMAAwCwYD
VR0PBAQDAgeAMB0GA1UdDgQWBBTVQc72Hcfnk7frfomZcKLu8LXcjDAfBgNVHSME
GDAWgBTVQc72Hcfnk7frfomZcKLu8LXcjDAfBgNVHSUEGDAWBggrBgEFBQcDAwYK
KwYBBAGSCBABAjANBgkqhkiG9w0BAQ0FAAOCAgEAQJ1bcGb+nJnr7Xhhvtpn2qyA
qMJ4kfiQEb6faue/edwRDMeD6BPEHLb+8Od9GhKXXRlWnBASHrkZiDCVxDsvqpFv
wZ5oSvRc76FRtaObWD/irlwppsQw/WULzIyZlTNhxgf6w70aV4DlQ5cu81zWHrcj
n1gQGSRGnvj9LI6I5+zvFUt6as6wJcABxSGDGtWJDJCGrdQ+bii/bCGR/7mp79Ss
3nxnweTtdSYV/11nOSQtFVchCXblhfNF6L+xwDkrgzQa9T8frgeMgh/U3JXATvN/
rNuPLNuk1CpMjN7mW4T836N02Nyckx9byTO1s30rpE16u3OS/43pnsen0g2Duywv
R1EVXG3bmtOebiWQAeYJvaLQHs+jEiINVnC/ieS+Ynac2fXIAVWVAlehZ1mIl1f2
u43JQNXjYE9D3UmQ+qVtCJayTd2nxuNcBrqvjDCd1aWwq8Tl8wlHBbqbRvQmcDv6
2qUKR86+Q4frc2M7zUF6eKD2fcU3+7smO7PnREkGjBQD/LNGVDsNVwIImXloopxi
lU2sjhlDTo8tUvqRyngGorejZm1nCxPusQE44HysmhYnNvFFg13r1s1lP1aa01bE
FVWyZMoTyzEefgOFaGFAAplLJQFojZfMORpUG+VROI7OZnRhXof0MX0Nvp0B4bNc
vBrQ6l6yyO6XNLyfu5g=
-----END CERTIFICATE-----
Certificate:
    Data:
        Version: 3 (0x2)
        Serial Number:
            c7:7e:51:6a:1c:25:cd:40
        Signature Algorithm: sha512WithRSAEncryption
        Issuer: CN = Canonical Ltd. Live Patch Signing
        Validity
            Not Before: Jul 18 23:41:27 2016 GMT
            Not After : Jul 16 23:41:27 2026 GMT
        Subject: CN = Canonical Ltd. Live Patch Signing
        Subject Public Key Info:
            Public Key Algorithm: rsaEncryption
                RSA Public-Key: (4096 bit)
                Modulus:
                    00:bd:74:ee:72:b3:4a:ab:e6:31:e8:29:24:c2:bd:
                    46:98:32:c0:39:ee:a3:fb:8a:ad:fe:ab:1a:5b:a3:
                    2e:a1:80:db:79:61:9e:47:79:2c:75:57:a2:21:f0:
                    93:f6:87:f2:9b:4b:9d:2f:b3:58:61:28:3c:41:70:
                    13:16:a1:72:90:c9:d5:16:71:7c:e0:30:f9:28:5e:
                    48:20:36:00:69:b7:59:9f:a3:ec:a8:eb:55:41:9f:
                    38:1e:22:4a:57:20:f4:83:59:49:c5:00:93:d3:33:
                    02:92:d1:fc:f0:84:3b:4a:5b:8f:b6:73:9a:89:fa:
                    30:1e:e6:2a:68:f2:91:ef:59:57:3d:dc:1c:52:6f:
                    5e:e6:9b:b5:b8:7c:98:c9:13:d1:39:68:01:67:91:
                    e0:d3:67:72:16:0a:5e:16:83:45:31:4f:b5:2b:b3:
                    f6:40:86:89:3a:84:6e:6f:16:61:bc:70:84:be:5a:
                    13:36:7b:82:ea:07:19:fc:18:c1:16:c6:32:0b:7d:
                    2c:6b:c4:21:b9:38:6b:31:dc:d9:0c:ad:56:40:68:
                    7c:e3:c6:64:8e:bf:1c:e0:72:3e:6c:db:d2:73:79:
                    da:d7:c5:2f:5d:04:7d:b0:07:1e:95:dd:2a:47:5e:
                    bf:3e:3a:c8:66:f6:67:0f:d4:2a:f1:e2:71:59:d2:
                    6c:7b:a0:37:ac:e6:97:80:30:13:97:48:d5:74:fc:
                    38:68:e4:57:cb:99:69:5a:84:27:ac:98:51:e4:64:
                    bd:91:62:e8:58:27:06:2a:b9:0b:b8:08:e5:e5:b4:
                    51:a7:a2:10:df:4e:07:6c:a0:3b:96:f2:6e:df:75:
                    8c:97:1e:64:a0:9a:86:9b:98:26:f9:d8:b7:de:5b:
                    21:b7:af:89:01:a3:f7:98:6b:da:19:ba:86:ef:ef:
                    f1:ce:bb:2f:89:ed:c0:b6:1b:e5:5b:f8:90:11:9a:
                    52:93:e9:be:f7:35:b9:08:cb:ba:c3:ed:2f:73:af:
                    cc:96:07:55:b5:de:f6:03:f6:f1:89:f9:21:40:76:
                    c1:69:f2:61:cc:9a:94:df:9c:ec:6a:65:38:be:d1:
                    4e:2a:87:c7:2f:3e:53:ae:8b:9f:54:a1:09:59:64:
                    25:aa:a9:d8:44:a9:a8:a0:71:e1:32:aa:4c:32:fd:
                    44:28:cc:9c:6f:8e:db:81:7e:6f:fa:00:56:c5:e5:
                    03:46:63:fb:8e:71:8d:e3:13:91:9f:ac:60:3e:64:
                    f3:df:25:34:09:fa:2d:96:9f:16:05:ea:93:f5:e6:
                    00:08:27:32:7b:3c:bd:ee:70:24:6c:3b:55:e9:db:
                    f4:10:2d:20:06:b4:ca:e9:29:65:55:ad:f6:52:54:
                    5f:e5:a3
                Exponent: 65537 (0x10001)
        X509v3 extensions:
            X509v3 Basic Constraints: critical
                CA:FALSE
            X509v3 Key Usage: 
                Digital Signature
            X509v3 Subject Key Identifier: 
                14:DF:34:D1:A8:7C:F3:76:25:AB:EC:03:9E:F2:BF:52:12:49:B9:69
            X509v3 Authority Key Identifier: 
                keyid:14:DF:34:D1:A8:7C:F3:76:25:AB:EC:03:9E:F2:BF:52:12:49:B9:69

    Signature Algorithm: sha512WithRSAEncryption
         30:e7:48:02:37:e9:28:cf:04:a2:4d:5c:fa:d8:4e:c9:76:c7:
         14:3f:bd:2c:51:3d:33:f0:1a:bc:49:f1:47:95:8f:69:d8:a9:
         54:14:44:6c:4d:9f:55:82:08:1e:c6:5b:d5:91:d9:bc:2e:b0:
         af:d6:25:65:74:96:aa:36:de:ae:31:a8:11:f2:a4:2c:5a:e1:
         4f:73:f8:4a:c3:35:b0:76:96:71:f2:b5:7d:4b:75:ee:5d:bf:
         86:a5:ba:0b:a9:52:cb:ec:ab:e5:23:4b:f2:74:55:28:17:1e:
         b3:ac:27:ad:45:13:6e:69:b3:5a:be:42:36:29:48:db:e7:5c:
         22:58:a0:90:82:2c:2a:21:2b:db:f4:64:b7:91:5d:1f:2c:48:
         a4:1a:85:e3:86:a5:aa:19:cd:19:e8:a5:fb:a3:7b:94:77:48:
         25:a4:cf:a0:cf:71:82:5c:6f:71:22:7c:d6:97:a0:53:bb:ec:
         30:f6:cb:16:fb:7b:fd:16:94:7a:53:6e:bd:04:64:a2:01:10:
         9f:f0:5b:b5:a6:73:41:9d:5f:6f:45:73:0d:05:f7:30:6d:39:
         90:b6:7d:55:7d:4c:2f:ae:5f:38:56:2f:8b:df:f4:bf:12:06:
         93:6e:0d:02:23:bf:71:91:57:88:e8:bd:62:72:99:00:40:29:
         1e:c9:13:11:da:7e:8e:e1:d2:a5:0d:bf:f7:d6:ec:01:0d:89:
         41:cd:d5:dc:d2:f7:5f:33:0d:4c:2f:85:b7:85:b7:81:e4:17:
         29:f0:74:cf:0e:15:8c:1a:50:0b:08:63:1a:91:4f:e7:76:97:
         f1:d4:3b:7e:72:d4:c5:45:58:0c:6a:e9:0d:f2:85:d8:91:1e:
         37:bd:78:e3:39:4d:2e:fd:85:31:c1:a6:3b:6a:cc:2c:53:72:
         1d:8e:7b:f0:e6:76:86:09:6f:1a:f3:e4:a1:e2:dd:76:5f:b0:
         8c:e2:2a:54:5d:c1:88:49:90:10:15:42:7d:05:24:53:8c:54:
         ff:48:18:1a:36:e3:31:d3:54:32:78:0d:fe:f2:3d:aa:0d:37:
         15:84:b4:36:47:31:e8:85:6e:0b:58:38:ff:21:91:09:c9:a8:
         43:a3:ea:60:cb:7e:ed:f7:41:6f:4e:91:c1:fd:77:46:e7:d4:
         e7:86:c0:1b:fd:50:6c:aa:be:00:b3:63:02:ff:4e:c7:a5:57:
         6e:29:64:e9:54:d5:30:63:38:5f:2d:5a:db:49:5f:14:14:22:
         d2:81:1f:61:9e:ee:ee:16:66:d6:bc:bd:ac:1b:5c:fb:38:31:
         95:33:2e:84:6e:7a:de:ee:b9:fc:97:17:06:13:bf:70:1c:6e:
         76:ed:66:38:e2:70:08:00
-----BEGIN CERTIFICATE-----
MIIFODCCAyCgAwIBAgIJAMd+UWocJc1AMA0GCSqGSIb3DQEBDQUAMCwxKjAoBgNV
BAMMIUNhbm9uaWNhbCBMdGQuIExpdmUgUGF0Y2ggU2lnbmluZzAeFw0xNjA3MTgy
MzQxMjdaFw0yNjA3MTYyMzQxMjdaMCwxKjAoBgNVBAMMIUNhbm9uaWNhbCBMdGQu
IExpdmUgUGF0Y2ggU2lnbmluZzCCAiIwDQYJKoZIhvcNAQEBBQADggIPADCCAgoC
ggIBAL107nKzSqvmMegpJMK9RpgywDnuo/uKrf6rGlujLqGA23lhnkd5LHVXoiHw
k/aH8ptLnS+zWGEoPEFwExahcpDJ1RZxfOAw+SheSCA2AGm3WZ+j7KjrVUGfOB4i
Slcg9INZScUAk9MzApLR/PCEO0pbj7Zzmon6MB7mKmjyke9ZVz3cHFJvXuabtbh8
mMkT0TloAWeR4NNnchYKXhaDRTFPtSuz9kCGiTqEbm8WYbxwhL5aEzZ7guoHGfwY
wRbGMgt9LGvEIbk4azHc2QytVkBofOPGZI6/HOByPmzb0nN52tfFL10EfbAHHpXd
Kkdevz46yGb2Zw/UKvHicVnSbHugN6zml4AwE5dI1XT8OGjkV8uZaVqEJ6yYUeRk
vZFi6FgnBiq5C7gI5eW0UaeiEN9OB2ygO5bybt91jJceZKCahpuYJvnYt95bIbev
iQGj95hr2hm6hu/v8c67L4ntwLYb5Vv4kBGaUpPpvvc1uQjLusPtL3OvzJYHVbXe
9gP28Yn5IUB2wWnyYcyalN+c7GplOL7RTiqHxy8+U66Ln1ShCVlkJaqp2ESpqKBx
4TKqTDL9RCjMnG+O24F+b/oAVsXlA0Zj+45xjeMTkZ+sYD5k898lNAn6LZafFgXq
k/XmAAgnMns8ve5wJGw7Venb9BAtIAa0yukpZVWt9lJUX+WjAgMBAAGjXTBbMAwG
A1UdEwEB/wQCMAAwCwYDVR0PBAQDAgeAMB0GA1UdDgQWBBQU3zTRqHzzdiWr7AOe
8r9SEkm5aTAfBgNVHSMEGDAWgBQU3zTRqHzzdiWr7AOe8r9SEkm5aTANBgkqhkiG
9w0BAQ0FAAOCAgEAMOdIAjfpKM8Eok1c+thOyXbHFD+9LFE9M/AavEnxR5WPadip
VBREbE2fVYIIHsZb1ZHZvC6wr9YlZXSWqjberjGoEfKkLFrhT3P4SsM1sHaWcfK1
fUt17l2/hqW6C6lSy+yr5SNL8nRVKBces6wnrUUTbmmzWr5CNilI2+dcIligkIIs
KiEr2/Rkt5FdHyxIpBqF44alqhnNGeil+6N7lHdIJaTPoM9xglxvcSJ81pegU7vs
MPbLFvt7/RaUelNuvQRkogEQn/BbtaZzQZ1fb0VzDQX3MG05kLZ9VX1ML65fOFYv
i9/0vxIGk24NAiO/cZFXiOi9YnKZAEApHskTEdp+juHSpQ2/99bsAQ2JQc3V3NL3
XzMNTC+Ft4W3geQXKfB0zw4VjBpQCwhjGpFP53aX8dQ7fnLUxUVYDGrpDfKF2JEe
N7144zlNLv2FMcGmO2rMLFNyHY578OZ2hglvGvPkoeLddl+wjOIqVF3BiEmQEBVC
fQUkU4xU/0gYGjbjMdNUMngN/vI9qg03FYS0Nkcx6IVuC1g4/yGRCcmoQ6PqYMt+
7fdBb06Rwf13RufU54bAG/1QbKq+ALNjAv9Ox6VXbilk6VTVMGM4Xy1a20lfFBQi
0oEfYZ7u7hZm1ry9rBtc+zgxlTMuhG563u65/JcXBhO/cBxudu1mOOJwCAA=
-----END CERTIFICATE-----
Certificate:
    Data:
        Version: 3 (0x2)
        Serial Number:
            2c:af:80:6d:b1:e0:8b:9f:49:90:7b:b2:39:4e:b3:c7:88:0e:44:53
        Signature Algorithm: sha512WithRSAEncryption
        Issuer: CN=Canonical Ltd. Kernel Module Signing 2025 Kmod
        Validity
            Not Before: Nov 21 12:32:19 2025 GMT
            Not After : Nov 21 12:32:19 2050 GMT
        Subject: CN=Canonical Ltd. Kernel Module Signing 2025 Kmod
        Subject Public Key Info:
            Public Key Algorithm: rsaEncryption
                Public-Key: (4096 bit)
                Modulus:
                    00:9e:20:bd:0d:2d:bd:af:fe:e2:68:a3:8e:fe:2b:
                    50:21:08:03:3a:32:71:d5:35:ac:d0:0a:07:ae:f4:
                    dc:a2:8d:2f:c6:0d:2a:6b:ac:ef:84:72:d5:df:91:
                    52:cf:76:01:b3:29:e1:ba:9f:5b:9f:f0:92:b7:03:
                    65:80:ca:d0:aa:6d:26:28:07:8b:2c:19:9e:87:e9:
                    5f:58:5c:aa:ad:3c:be:71:3a:2d:d6:79:72:23:7e:
                    bf:f3:39:48:c6:d0:2f:7f:c2:79:0e:35:51:c9:4f:
                    e9:bf:80:06:75:5e:76:30:c0:96:83:4a:79:f3:3a:
                    9e:30:e5:0e:9d:b6:86:c3:7c:6a:eb:4d:4c:5c:0b:
                    e1:a8:48:b2:e4:f4:62:64:55:7b:f0:5b:10:15:07:
                    51:89:e4:98:7e:7b:58:c0:38:dc:03:7e:ba:1a:0e:
                    c2:12:b0:1e:93:f1:dc:7d:8f:85:7d:d0:7f:d6:ef:
                    e6:6c:90:03:d9:85:a5:a1:43:20:af:b1:89:75:d4:
                    e7:af:63:b1:ba:0d:a3:a4:5e:29:a4:5c:f0:bf:9a:
                    c8:7e:c3:da:60:d4:ae:ad:13:3f:cc:4b:64:73:3d:
                    59:3f:8b:91:7f:8c:fe:e6:4b:2f:e3:04:2b:e3:ae:
                    0d:6f:8b:55:b9:e9:1b:67:37:25:9d:43:d3:70:b5:
                    01:e8:d9:de:11:9a:b8:c9:5b:ba:b0:0c:6a:9f:9b:
                    fe:79:e3:a9:27:90:1d:56:95:84:8b:eb:96:a1:47:
                    83:28:3c:d0:ea:81:7e:fe:a2:90:3d:84:02:5e:bc:
                    68:0b:70:69:36:18:32:53:e3:4a:e1:c5:0d:dc:d6:
                    cd:3f:c0:1a:27:28:db:96:0a:ce:01:03:0d:8e:9e:
                    38:e1:04:85:38:ad:f7:1f:10:40:b5:b1:d5:85:bd:
                    e6:62:b1:3c:f0:ac:8f:8a:88:62:46:cc:bf:64:9b:
                    e7:b6:c0:68:3e:96:14:54:6c:76:08:8d:6a:fd:08:
                    4b:8e:0b:0e:ca:84:8a:17:60:fb:12:c7:f2:27:49:
                    9b:b8:ff:a9:3f:70:5f:98:51:be:96:f1:0d:bf:1d:
                    0e:c3:c7:34:5e:b3:35:e7:ff:43:e4:0e:7a:86:08:
                    d6:13:a6:6f:48:4a:d6:f5:61:cb:ba:29:e6:54:ac:
                    c9:c0:32:5e:fe:72:b2:e1:c4:e4:d9:ec:6a:1e:f2:
                    5f:cc:db:44:30:42:79:ca:c8:d1:86:28:3b:3a:50:
                    d0:71:81:5f:ab:fb:f1:2f:65:df:8e:a4:7c:96:5c:
                    46:c3:fc:b0:fd:3d:b1:38:cf:85:15:a6:da:ce:a9:
                    a3:b0:76:6a:4b:8a:4c:25:ce:c2:3d:fc:01:11:24:
                    1d:c7:f9
                Exponent: 65537 (0x10001)
        X509v3 extensions:
            X509v3 Basic Constraints: critical
                CA:FALSE
            X509v3 Key Usage: 
                Digital Signature
            X509v3 Subject Key Identifier: 
                46:27:60:3D:23:57:A2:A3:F8:10:06:37:08:94:C2:21:17:58:93:E9
            X509v3 Authority Key Identifier: 
                46:27:60:3D:23:57:A2:A3:F8:10:06:37:08:94:C2:21:17:58:93:E9
            X509v3 Extended Key Usage: 
                Code Signing, 1.3.6.1.4.1.2312.16.1.2
    Signature Algorithm: sha512WithRSAEncryption
    Signature Value:
        21:a6:29:45:48:fc:42:37:12:b8:71:af:06:9e:2a:63:91:19:
        7b:52:a5:c9:2a:63:66:36:94:3f:2b:ac:f7:01:7e:04:48:92:
        7c:33:66:94:c8:c0:c3:1e:a4:f4:10:d2:4a:67:1a:10:64:15:
        dd:70:86:8c:4d:ef:a9:c2:09:bc:44:9b:83:06:7c:ce:b3:2f:
        09:9f:32:51:dd:f9:e6:87:96:c7:3f:08:e1:8f:ed:4d:b0:39:
        02:9c:c0:86:40:28:56:59:5c:1d:11:af:a8:ad:49:e8:91:a0:
        31:a2:e8:c4:5e:88:c4:31:c3:d4:6f:3f:5a:94:c7:6e:b8:2a:
        74:27:90:12:c6:1f:35:87:32:31:e9:38:14:d9:09:c3:42:e6:
        e7:f7:8f:46:22:a1:c9:12:0c:34:1a:7c:d0:6b:e5:c7:42:49:
        3f:7d:c9:bb:38:65:e3:93:16:1b:ae:48:6c:29:53:ec:1a:a0:
        75:3f:3e:e4:a7:30:59:79:e7:8d:4b:76:06:8d:f5:4b:97:06:
        0a:af:0e:0b:7b:37:8c:9d:86:3d:92:40:cf:2d:87:ca:5c:66:
        01:9b:bd:42:99:5c:4b:39:91:0e:8f:db:d3:2b:57:fe:4a:17:
        a0:10:17:e4:39:f1:a1:28:1b:51:53:9c:cf:95:4e:23:55:e3:
        24:2b:2e:dc:ed:cb:9c:1a:fb:64:f6:05:be:c4:71:70:62:af:
        52:2d:64:9f:4b:f0:87:5d:5d:53:8d:41:2e:6a:81:2a:e2:fb:
        55:89:7d:70:93:eb:59:61:b1:f7:75:64:0e:6c:f7:eb:b9:d4:
        83:08:20:29:9c:03:0b:5b:d5:8f:de:4e:bd:e0:d9:c2:c5:01:
        03:9d:a5:3a:db:2b:f2:32:89:67:0e:ec:32:a4:74:bd:fb:f8:
        0e:b4:cf:cd:5e:49:bb:02:2d:d1:0c:3d:2f:d7:22:e4:89:4c:
        6a:3c:e5:ce:6d:21:68:7e:74:2e:35:5e:3b:9a:44:3b:a5:54:
        9a:3c:be:df:5d:e2:f6:dd:1c:bd:f8:05:99:82:2f:16:4d:6e:
        f6:37:8b:77:3f:81:2f:10:a6:4c:04:67:a4:58:34:0d:5d:6f:
        e4:2a:c4:c2:be:00:f1:8e:8b:85:98:77:48:8a:47:21:2e:ff:
        cc:55:6d:8c:f2:ec:3e:14:75:a5:7d:0c:24:40:b6:54:49:30:
        84:1a:62:b2:19:60:42:3c:a4:3f:bc:fc:21:f6:1d:19:83:cc:
        f8:cb:08:2a:15:49:c8:35:8f:bd:14:c3:22:92:c9:5b:84:88:
        50:01:db:10:08:4b:24:08:00:c4:60:76:be:e8:62:e2:0c:bd:
        9a:28:3c:70:86:9c:dd:94
-----BEGIN CERTIFICATE-----
MIIFgDCCA2igAwIBAgIULK+AbbHgi59JkHuyOU6zx4gORFMwDQYJKoZIhvcNAQEN
BQAwOTE3MDUGA1UEAwwuQ2Fub25pY2FsIEx0ZC4gS2VybmVsIE1vZHVsZSBTaWdu
aW5nIDIwMjUgS21vZDAgFw0yNTExMjExMjMyMTlaGA8yMDUwMTEyMTEyMzIxOVow
OTE3MDUGA1UEAwwuQ2Fub25pY2FsIEx0ZC4gS2VybmVsIE1vZHVsZSBTaWduaW5n
IDIwMjUgS21vZDCCAiIwDQYJKoZIhvcNAQEBBQADggIPADCCAgoCggIBAJ4gvQ0t
va/+4mijjv4rUCEIAzoycdU1rNAKB6703KKNL8YNKmus74Ry1d+RUs92AbMp4bqf
W5/wkrcDZYDK0KptJigHiywZnofpX1hcqq08vnE6LdZ5ciN+v/M5SMbQL3/CeQ41
UclP6b+ABnVedjDAloNKefM6njDlDp22hsN8autNTFwL4ahIsuT0YmRVe/BbEBUH
UYnkmH57WMA43AN+uhoOwhKwHpPx3H2PhX3Qf9bv5myQA9mFpaFDIK+xiXXU569j
sboNo6ReKaRc8L+ayH7D2mDUrq0TP8xLZHM9WT+LkX+M/uZLL+MEK+OuDW+LVbnp
G2c3JZ1D03C1AejZ3hGauMlburAMap+b/nnjqSeQHVaVhIvrlqFHgyg80OqBfv6i
kD2EAl68aAtwaTYYMlPjSuHFDdzWzT/AGico25YKzgEDDY6eOOEEhTit9x8QQLWx
1YW95mKxPPCsj4qIYkbMv2Sb57bAaD6WFFRsdgiNav0IS44LDsqEihdg+xLH8idJ
m7j/qT9wX5hRvpbxDb8dDsPHNF6zNef/Q+QOeoYI1hOmb0hK1vVhy7op5lSsycAy
Xv5ysuHE5Nnsah7yX8zbRDBCecrI0YYoOzpQ0HGBX6v78S9l346kfJZcRsP8sP09
sTjPhRWm2s6po7B2akuKTCXOwj38AREkHcf5AgMBAAGjfjB8MAwGA1UdEwEB/wQC
MAAwCwYDVR0PBAQDAgeAMB0GA1UdDgQWBBRGJ2A9I1eio/gQBjcIlMIhF1iT6TAf
BgNVHSMEGDAWgBRGJ2A9I1eio/gQBjcIlMIhF1iT6TAfBgNVHSUEGDAWBggrBgEF
BQcDAwYKKwYBBAGSCBABAjANBgkqhkiG9w0BAQ0FAAOCAgEAIaYpRUj8QjcSuHGv
Bp4qY5EZe1KlySpjZjaUPyus9wF+BEiSfDNmlMjAwx6k9BDSSmcaEGQV3XCGjE3v
qcIJvESbgwZ8zrMvCZ8yUd355oeWxz8I4Y/tTbA5ApzAhkAoVllcHRGvqK1J6JGg
MaLoxF6IxDHD1G8/WpTHbrgqdCeQEsYfNYcyMek4FNkJw0Lm5/ePRiKhyRIMNBp8
0Gvlx0JJP33Juzhl45MWG65IbClT7BqgdT8+5KcwWXnnjUt2Bo31S5cGCq8OC3s3
jJ2GPZJAzy2HylxmAZu9QplcSzmRDo/b0ytX/koXoBAX5DnxoSgbUVOcz5VOI1Xj
JCsu3O3LnBr7ZPYFvsRxcGKvUi1kn0vwh11dU41BLmqBKuL7VYl9cJPrWWGx93Vk
Dmz367nUgwggKZwDC1vVj95OveDZwsUBA52lOtsr8jKJZw7sMqR0vfv4DrTPzV5J
uwIt0Qw9L9ci5IlMajzlzm0haH50LjVeO5pEO6VUmjy+313i9t0cvfgFmYIvFk1u
9jeLdz+BLxCmTARnpFg0DV1v5CrEwr4A8Y6LhZh3SIpHIS7/zFVtjPLsPhR1pX0M
JEC2VEkwhBpishlgQjykP7z8IfYdGYPM+MsIKhVJyDWPvRTDIpLJW4SIUAHbEAhL
JAgAxGB2vuhi4gy9mig8cIac3ZQ=
-----END CERTIFICATE-----
Certificate:
    Data:
        Version: 3 (0x2)
        Serial Number:
            e9:df:13:0f:92:92:a9:b7
        Signature Algorithm: sha512WithRSAEncryption
        Issuer: C = GB, ST = Isle of Man, L = Douglas, O = Canonical Ltd., CN = Canonical Ltd. Kernel Module Signing
        Validity
            Not Before: May 31 16:06:09 2016 GMT
            Not After : May 29 16:06:09 2026 GMT
        Subject: C = GB, ST = Isle of Man, L = Douglas, O = Canonical Ltd., CN = Canonical Ltd. Kernel Module Signing
        Subject Public Key Info:
            Public Key Algorithm: rsaEncryption
                RSA Public-Key: (4096 bit)
                Modulus:
                    00:b3:b0:4f:c6:0a:77:8b:f9:d1:53:33:34:d2:80:
                    b5:63:6f:e1:f6:a2:83:99:d5:b6:b1:e4:99:91:fa:
                    6c:19:c6:d0:91:2a:b9:7d:b5:98:a6:0d:28:01:b8:
                    7c:8e:aa:38:ec:51:37:33:96:f0:b0:9b:8d:86:5f:
                    67:23:69:2f:d7:c2:f3:fb:c5:d7:f9:04:ff:f2:e5:
                    61:68:b7:29:b9:c6:8e:4b:4d:2d:8f:92:0c:00:b3:
                    a3:d2:5a:08:64:cd:f2:09:0b:a5:0e:e6:64:75:d5:
                    41:f4:4d:49:3a:0d:dc:b9:27:8e:c4:d6:b1:df:8f:
                    6c:f0:e4:f7:31:cb:a9:04:a1:f9:a7:aa:15:da:59:
                    03:4d:46:14:d0:dd:bf:e0:f5:9e:f0:71:0c:70:78:
                    2b:08:fb:e0:b6:68:a4:74:12:9d:f7:f2:64:88:17:
                    2a:8a:ed:1a:91:b5:6c:13:bd:4c:10:0a:0b:72:0b:
                    90:db:7d:f3:78:44:4c:d2:a5:41:f7:1c:77:7d:5a:
                    8a:54:bc:8f:fe:b7:ee:e1:bc:59:37:c4:d4:e8:14:
                    d0:5b:42:9b:04:00:8e:6d:83:8a:25:21:5b:08:c4:
                    7b:b2:d9:99:52:c9:5e:59:6d:c4:aa:52:59:e2:e4:
                    2f:7e:7e:ac:05:01:99:bf:13:72:b7:45:c5:17:da:
                    8a:d5:3e:71:73:2e:d8:aa:e6:eb:5a:d0:9a:c4:93:
                    f3:be:eb:d2:47:25:34:16:29:fa:dd:9a:2f:b1:20:
                    e5:41:4e:ed:ea:51:7c:23:80:ba:3d:b5:3a:0b:8c:
                    9c:85:48:6c:3c:8b:29:2f:2f:12:c7:52:34:02:ea:
                    0f:ac:53:23:3c:f8:3e:40:1b:30:63:e9:2d:e6:f6:
                    58:cc:51:f9:eb:08:4a:b4:c7:16:80:d1:8b:c2:64:
                    6a:71:a9:70:31:a4:a7:3a:c0:93:99:1b:0e:42:c1:
                    00:6d:43:27:99:6c:e5:fd:23:16:c1:8e:b5:66:17:
                    2b:4c:53:5a:6d:1e:96:16:13:6a:c6:d4:85:5b:74:
                    2e:ce:7c:45:2f:ad:cb:75:9e:5e:91:bd:9a:6a:86:
                    1a:06:bd:39:be:a3:50:56:ea:e1:f6:e3:95:69:d7:
                    31:e4:66:f7:36:b5:51:c2:22:b4:9c:74:9c:44:0b:
                    0e:16:5f:53:f0:23:c6:b9:40:bd:d6:b8:7d:1b:f6:
                    73:f6:27:e7:c0:e3:65:a0:58:ab:5c:59:b7:80:8c:
                    8c:04:b4:a9:ae:a0:51:40:10:3b:63:59:49:87:d1:
                    9b:df:a3:8c:c4:2e:eb:70:c1:0a:18:1f:cb:22:c2:
                    f2:4a:65:0d:e5:81:74:d8:ce:72:c6:35:be:ba:63:
                    72:c4:f9
                Exponent: 65537 (0x10001)
        X509v3 extensions:
            X509v3 Basic Constraints: critical
                CA:FALSE
            X509v3 Key Usage: 
                Digital Signature
            X509v3 Subject Key Identifier: 
                88:F7:52:E5:60:A1:E0:73:7E:31:16:3A:46:6A:D7:B7:0A:85:0C:19
            X509v3 Authority Key Identifier: 
                keyid:88:F7:52:E5:60:A1:E0:73:7E:31:16:3A:46:6A:D7:B7:0A:85:0C:19

    Signature Algorithm: sha512WithRSAEncryption
         04:85:16:27:58:ba:71:28:57:86:7b:c2:83:db:e5:72:6f:1e:
         b2:1c:63:b0:db:ad:c0:42:96:c0:4f:65:f6:35:4d:c0:07:0d:
         46:be:d3:1e:ec:f1:22:18:2a:18:5d:bb:69:a6:a6:d4:0d:c3:
         57:03:b9:e7:45:49:28:ca:6d:98:17:68:97:cb:7b:36:81:0a:
         37:9e:34:79:f3:e1:0e:5b:77:43:bb:5a:a5:45:b7:16:50:86:
         fd:12:a4:96:0f:15:19:09:1c:e1:fa:80:a5:80:09:be:bb:c8:
         26:0b:3e:de:03:d2:c2:18:a4:8d:0d:de:c5:32:82:0b:fb:75:
         55:66:1a:2a:bb:e4:bd:25:91:20:15:d4:be:b8:3f:53:e3:fb:
         a8:c3:55:e3:d5:e7:82:18:95:df:39:09:a7:fc:89:6e:b4:1c:
         aa:2d:e8:67:c2:0d:34:34:3e:f9:fa:0b:ce:81:92:11:ae:12:
         0a:fe:35:63:ce:46:29:c4:2b:4f:cb:4e:05:0a:a1:11:e2:35:
         f6:5a:5d:b5:e8:d2:6f:4c:fc:3d:24:a6:03:4b:dd:98:6b:f2:
         71:58:16:1d:a5:25:ef:d9:06:7c:e8:db:7b:88:6a:89:5c:59:
         01:92:64:db:44:08:63:6c:7c:32:d6:55:98:63:09:26:61:67:
         0a:fe:5d:ee:fd:23:59:b3:4d:91:c1:4d:41:8b:cd:20:58:fa:
         2d:45:e5:bd:1d:69:5c:03:a0:49:a6:97:54:13:b6:c9:e0:f8:
         56:83:a1:2a:c3:f4:6c:fd:ab:20:ca:3d:9c:95:c0:cf:04:bb:
         46:39:cf:34:81:65:45:27:64:01:7d:62:b3:b8:72:ea:10:d5:
         0f:53:7d:39:88:25:09:6f:8c:bc:e0:49:bb:39:e2:0e:8d:cf:
         56:4d:c1:82:6d:87:d2:e7:fc:c0:9f:a7:65:60:d2:6c:65:18:
         59:38:6e:d0:9c:d7:c3:81:9a:9a:29:8f:83:84:c3:b5:44:ff:
         28:ac:13:17:64:f2:26:13:d9:55:06:b7:69:68:7c:bf:ec:d1:
         8c:ef:b7:da:76:e1:07:73:c6:31:62:31:cb:b6:e1:e7:7f:0c:
         c3:f7:4c:52:be:25:36:8e:a1:bb:60:02:c3:cb:3e:6f:29:fc:
         7f:6a:fa:f8:ec:0a:df:49:e2:57:0e:bc:bd:93:c3:1b:d5:36:
         8a:ff:d8:1b:17:c7:1f:cb:69:00:d2:54:9e:ad:61:89:92:95:
         11:f8:ea:17:83:9f:9b:09:7d:b8:94:a4:ea:f5:ae:ea:dc:dd:
         62:b9:9e:68:9c:18:ec:19:c4:13:08:c8:b1:62:ab:8e:84:69:
         11:3c:da:ea:0d:b7:22:bd
-----BEGIN CERTIFICATE-----
MIIF2jCCA8KgAwIBAgIJAOnfEw+Skqm3MA0GCSqGSIb3DQEBDQUAMH0xCzAJBgNV
BAYTAkdCMRQwEgYDVQQIDAtJc2xlIG9mIE1hbjEQMA4GA1UEBwwHRG91Z2xhczEX
MBUGA1UECgwOQ2Fub25pY2FsIEx0ZC4xLTArBgNVBAMMJENhbm9uaWNhbCBMdGQu
IEtlcm5lbCBNb2R1bGUgU2lnbmluZzAeFw0xNjA1MzExNjA2MDlaFw0yNjA1Mjkx
NjA2MDlaMH0xCzAJBgNVBAYTAkdCMRQwEgYDVQQIDAtJc2xlIG9mIE1hbjEQMA4G
A1UEBwwHRG91Z2xhczEXMBUGA1UECgwOQ2Fub25pY2FsIEx0ZC4xLTArBgNVBAMM
JENhbm9uaWNhbCBMdGQuIEtlcm5lbCBNb2R1bGUgU2lnbmluZzCCAiIwDQYJKoZI
hvcNAQEBBQADggIPADCCAgoCggIBALOwT8YKd4v50VMzNNKAtWNv4faig5nVtrHk
mZH6bBnG0JEquX21mKYNKAG4fI6qOOxRNzOW8LCbjYZfZyNpL9fC8/vF1/kE//Ll
YWi3KbnGjktNLY+SDACzo9JaCGTN8gkLpQ7mZHXVQfRNSToN3LknjsTWsd+PbPDk
9zHLqQSh+aeqFdpZA01GFNDdv+D1nvBxDHB4Kwj74LZopHQSnffyZIgXKortGpG1
bBO9TBAKC3ILkNt983hETNKlQfccd31ailS8j/637uG8WTfE1OgU0FtCmwQAjm2D
iiUhWwjEe7LZmVLJXlltxKpSWeLkL35+rAUBmb8TcrdFxRfaitU+cXMu2Krm61rQ
msST877r0kclNBYp+t2aL7Eg5UFO7epRfCOAuj21OguMnIVIbDyLKS8vEsdSNALq
D6xTIzz4PkAbMGPpLeb2WMxR+esISrTHFoDRi8JkanGpcDGkpzrAk5kbDkLBAG1D
J5ls5f0jFsGOtWYXK0xTWm0elhYTasbUhVt0Ls58RS+ty3WeXpG9mmqGGga9Ob6j
UFbq4fbjlWnXMeRm9za1UcIitJx0nEQLDhZfU/AjxrlAvda4fRv2c/Yn58DjZaBY
q1xZt4CMjAS0qa6gUUAQO2NZSYfRm9+jjMQu63DBChgfyyLC8kplDeWBdNjOcsY1
vrpjcsT5AgMBAAGjXTBbMAwGA1UdEwEB/wQCMAAwCwYDVR0PBAQDAgeAMB0GA1Ud
DgQWBBSI91LlYKHgc34xFjpGate3CoUMGTAfBgNVHSMEGDAWgBSI91LlYKHgc34x
FjpGate3CoUMGTANBgkqhkiG9w0BAQ0FAAOCAgEABIUWJ1i6cShXhnvCg9vlcm8e
shxjsNutwEKWwE9l9jVNwAcNRr7THuzxIhgqGF27aaam1A3DVwO550VJKMptmBdo
l8t7NoEKN540efPhDlt3Q7tapUW3FlCG/RKklg8VGQkc4fqApYAJvrvIJgs+3gPS
whikjQ3exTKCC/t1VWYaKrvkvSWRIBXUvrg/U+P7qMNV49XnghiV3zkJp/yJbrQc
qi3oZ8INNDQ++foLzoGSEa4SCv41Y85GKcQrT8tOBQqhEeI19lpdtejSb0z8PSSm
A0vdmGvycVgWHaUl79kGfOjbe4hqiVxZAZJk20QIY2x8MtZVmGMJJmFnCv5d7v0j
WbNNkcFNQYvNIFj6LUXlvR1pXAOgSaaXVBO2yeD4VoOhKsP0bP2rIMo9nJXAzwS7
RjnPNIFlRSdkAX1is7hy6hDVD1N9OYglCW+MvOBJuzniDo3PVk3Bgm2H0uf8wJ+n
ZWDSbGUYWThu0JzXw4GamimPg4TDtUT/KKwTF2TyJhPZVQa3aWh8v+zRjO+32nbh
B3PGMWIxy7bh538Mw/dMUr4lNo6hu2ACw8s+byn8f2r6+OwK30niVw68vZPDG9U2
iv/YGxfHH8tpANJUnq1hiZKVEfjqF4Ofmwl9uJSk6vWu6tzdYrmeaJwY7BnEEwjI
sWKrjoRpETza6g23Ir0=
-----END CERTIFICATE-----
